#include <math.h>
#include <stdio.h>
#include <stdlib.h>
#include <string.h>

int main()
{
	int array[100][100], row, col;
	int c, r, sum;
	scanf("%d%d", &row, &col);
	for(r=0;r<row;r++)
	{
		for(c=0;c<col;c++)
		{
			scanf("%d",&array[r][c]);
		}
	}

	for(sum=0;sum<=row+col-2;sum++)
	{
		if(sum<col)
		{
			for(c=sum;c>=0;c--)
			{
				if((sum-c)>=row) break;
				printf("%d\n",array[sum-c][c]);
			}
		}
		else
		{
			for(r=sum-col+1;r<row;r++)
			{
				if((sum-r)<0) break;
				printf("%d\n",array[r][sum-r]);
			}
		}
	}
	return 0;
}



	
