; ModuleID = 'source-C-CXX/3/1331.c'
source_filename = "source-C-CXX/3/1331.c"
target datalayout = "e-m:e-p270:32:32-p271:32:32-p272:64:64-i64:64-f80:128-n8:16:32:64-S128"
target triple = "x86_64-pc-linux-gnu"

@.str = private unnamed_addr constant [5 x i8] c"%d%d\00", align 1
@.str.1 = private unnamed_addr constant [3 x i8] c"%d\00", align 1
@.str.2 = private unnamed_addr constant [4 x i8] c"%d\0A\00", align 1

; Function Attrs: nofree nounwind sspstrong uwtable
define dso_local i32 @main() local_unnamed_addr #0 {
  %1 = alloca [100 x [100 x i32]], align 16
  %2 = alloca i32, align 4
  %3 = alloca i32, align 4
  %4 = bitcast [100 x [100 x i32]]* %1 to i8*
  call void @llvm.lifetime.start.p0i8(i64 40000, i8* nonnull %4) #3
  %5 = bitcast i32* %2 to i8*
  call void @llvm.lifetime.start.p0i8(i64 4, i8* nonnull %5) #3
  %6 = bitcast i32* %3 to i8*
  call void @llvm.lifetime.start.p0i8(i64 4, i8* nonnull %6) #3
  %7 = call i32 (i8*, ...) @__isoc99_scanf(i8* getelementptr inbounds ([5 x i8], [5 x i8]* @.str, i64 0, i64 0), i32* nonnull %2, i32* nonnull %3)
  %8 = load i32, i32* %2, align 4, !tbaa !5
  %9 = icmp sgt i32 %8, 0
  %10 = load i32, i32* %3, align 4, !tbaa !5
  %11 = icmp sgt i32 %10, 0
  %12 = select i1 %9, i1 %11, i1 false
  br i1 %12, label %13, label %18

13:                                               ; preds = %0, %34
  %14 = phi i32 [ %35, %34 ], [ %8, %0 ]
  %15 = phi i32 [ %36, %34 ], [ %10, %0 ]
  %16 = phi i64 [ %37, %34 ], [ 0, %0 ]
  %17 = icmp sgt i32 %15, 0
  br i1 %17, label %24, label %34

18:                                               ; preds = %34, %0
  %19 = phi i32 [ %10, %0 ], [ %36, %34 ]
  %20 = phi i32 [ %8, %0 ], [ %35, %34 ]
  %21 = add i32 %20, -2
  %22 = add i32 %21, %19
  %23 = icmp slt i32 %22, 0
  br i1 %23, label %99, label %40

24:                                               ; preds = %13, %24
  %25 = phi i64 [ %28, %24 ], [ 0, %13 ]
  %26 = getelementptr inbounds [100 x [100 x i32]], [100 x [100 x i32]]* %1, i64 0, i64 %16, i64 %25
  %27 = call i32 (i8*, ...) @__isoc99_scanf(i8* getelementptr inbounds ([3 x i8], [3 x i8]* @.str.1, i64 0, i64 0), i32* nonnull %26)
  %28 = add nuw nsw i64 %25, 1
  %29 = load i32, i32* %3, align 4, !tbaa !5
  %30 = sext i32 %29 to i64
  %31 = icmp slt i64 %28, %30
  br i1 %31, label %24, label %32, !llvm.loop !9

32:                                               ; preds = %24
  %33 = load i32, i32* %2, align 4, !tbaa !5
  br label %34

34:                                               ; preds = %32, %13
  %35 = phi i32 [ %33, %32 ], [ %14, %13 ]
  %36 = phi i32 [ %29, %32 ], [ %15, %13 ]
  %37 = add nuw nsw i64 %16, 1
  %38 = sext i32 %35 to i64
  %39 = icmp slt i64 %37, %38
  br i1 %39, label %13, label %18, !llvm.loop !11

40:                                               ; preds = %18, %89
  %41 = phi i32 [ %90, %89 ], [ %20, %18 ]
  %42 = phi i32 [ %91, %89 ], [ %20, %18 ]
  %43 = phi i64 [ %92, %89 ], [ 0, %18 ]
  %44 = phi i32 [ %98, %89 ], [ 1, %18 ]
  %45 = phi i32 [ %93, %89 ], [ %19, %18 ]
  %46 = sext i32 %45 to i64
  %47 = icmp slt i64 %43, %46
  br i1 %47, label %48, label %65

48:                                               ; preds = %40
  %49 = icmp sgt i32 %42, 0
  br i1 %49, label %50, label %89

50:                                               ; preds = %48, %59
  %51 = phi i64 [ %62, %59 ], [ 0, %48 ]
  %52 = phi i64 [ %60, %59 ], [ %43, %48 ]
  %53 = getelementptr inbounds [100 x [100 x i32]], [100 x [100 x i32]]* %1, i64 0, i64 %51, i64 %52
  %54 = load i32, i32* %53, align 4, !tbaa !5
  %55 = call i32 (i8*, ...) @printf(i8* nonnull dereferenceable(1) getelementptr inbounds ([4 x i8], [4 x i8]* @.str.2, i64 0, i64 0), i32 %54)
  %56 = icmp sgt i64 %52, 0
  br i1 %56, label %59, label %57, !llvm.loop !13

57:                                               ; preds = %50
  %58 = load i32, i32* %2, align 4, !tbaa !5
  br label %89

59:                                               ; preds = %50
  %60 = add nsw i64 %52, -1
  %61 = load i32, i32* %2, align 4, !tbaa !5
  %62 = sub nuw nsw i64 %43, %60
  %63 = sext i32 %61 to i64
  %64 = icmp slt i64 %62, %63
  br i1 %64, label %50, label %89

65:                                               ; preds = %40
  %66 = trunc i64 %43 to i32
  %67 = sub nsw i32 %66, %45
  %68 = add nsw i32 %67, 1
  %69 = icmp slt i32 %68, %42
  br i1 %69, label %70, label %89

70:                                               ; preds = %65
  %71 = sub i32 %44, %45
  %72 = sext i32 %71 to i64
  %73 = sub nsw i64 %43, %72
  %74 = icmp slt i64 %73, 0
  br i1 %74, label %89, label %75

75:                                               ; preds = %70, %75
  %76 = phi i64 [ %86, %75 ], [ %73, %70 ]
  %77 = phi i64 [ %82, %75 ], [ %72, %70 ]
  %78 = and i64 %76, 4294967295
  %79 = getelementptr inbounds [100 x [100 x i32]], [100 x [100 x i32]]* %1, i64 0, i64 %77, i64 %78
  %80 = load i32, i32* %79, align 4, !tbaa !5
  %81 = call i32 (i8*, ...) @printf(i8* nonnull dereferenceable(1) getelementptr inbounds ([4 x i8], [4 x i8]* @.str.2, i64 0, i64 0), i32 %80)
  %82 = add nsw i64 %77, 1
  %83 = load i32, i32* %2, align 4, !tbaa !5
  %84 = sext i32 %83 to i64
  %85 = icmp sge i64 %82, %84
  %86 = sub nsw i64 %43, %82
  %87 = icmp slt i64 %86, 0
  %88 = select i1 %85, i1 true, i1 %87
  br i1 %88, label %89, label %75, !llvm.loop !14

89:                                               ; preds = %75, %59, %70, %48, %57, %65
  %90 = phi i32 [ %41, %65 ], [ %58, %57 ], [ %41, %48 ], [ %41, %70 ], [ %61, %59 ], [ %83, %75 ]
  %91 = phi i32 [ %42, %65 ], [ %58, %57 ], [ %41, %48 ], [ %42, %70 ], [ %61, %59 ], [ %83, %75 ]
  %92 = add nuw nsw i64 %43, 1
  %93 = load i32, i32* %3, align 4, !tbaa !5
  %94 = add i32 %91, -2
  %95 = add i32 %94, %93
  %96 = sext i32 %95 to i64
  %97 = icmp slt i64 %43, %96
  %98 = add nuw i32 %44, 1
  br i1 %97, label %40, label %99, !llvm.loop !15

99:                                               ; preds = %89, %18
  call void @llvm.lifetime.end.p0i8(i64 4, i8* nonnull %6) #3
  call void @llvm.lifetime.end.p0i8(i64 4, i8* nonnull %5) #3
  call void @llvm.lifetime.end.p0i8(i64 40000, i8* nonnull %4) #3
  ret i32 0
}

; Function Attrs: argmemonly mustprogress nofree nosync nounwind willreturn
declare void @llvm.lifetime.start.p0i8(i64 immarg, i8* nocapture) #1

; Function Attrs: nofree nounwind
declare noundef i32 @__isoc99_scanf(i8* nocapture noundef readonly, ...) local_unnamed_addr #2

; Function Attrs: nofree nounwind
declare noundef i32 @printf(i8* nocapture noundef readonly, ...) local_unnamed_addr #2

; Function Attrs: argmemonly mustprogress nofree nosync nounwind willreturn
declare void @llvm.lifetime.end.p0i8(i64 immarg, i8* nocapture) #1


!llvm.module.flags = !{!0, !1, !2, !3}
!llvm.ident = !{!4}

!0 = !{i32 1, !"wchar_size", i32 4}
!1 = !{i32 7, !"PIC Level", i32 2}
!2 = !{i32 7, !"PIE Level", i32 2}
!3 = !{i32 7, !"uwtable", i32 1}
!4 = !{!"clang version 13.0.0"}
!5 = !{!6, !6, i64 0}
!6 = !{!"int", !7, i64 0}
!7 = !{!"omnipotent char", !8, i64 0}
!8 = !{!"Simple C/C++ TBAA"}
!9 = distinct !{!9, !10}
!10 = !{!"llvm.loop.mustprogress"}
!11 = distinct !{!11, !10, !12}
!12 = !{!"llvm.loop.unswitch.partial.disable"}
!13 = distinct !{!13, !10}
!14 = distinct !{!14, !10}
!15 = distinct !{!15, !10}
